target datalayout = "e-m:e-p270:32:32-p271:32:32-p272:64:64-i64:64-i128:128-f80:128-n8:16:32:64-S128"
target triple = "x86_64-pc-linux-gnu"

%"struct.std::_Rb_tree_header" = type { %"struct.std::_Rb_tree_node_base", i64 }
%"struct.std::_Rb_tree_node_base" = type { i32, ptr, ptr, ptr }
%"class.Imath_3_2::Box" = type { %"class.Imath_3_2::Vec2", %"class.Imath_3_2::Vec2" }
%"class.Imath_3_2::Vec2" = type { i32, i32 }
%"class.Imf_3_4::Header" = type <{ %"class.std::map", i8, [7 x i8] }>
%"class.std::map" = type { %"class.std::_Rb_tree" }
%"class.std::_Rb_tree" = type { %"struct.std::_Rb_tree<Imf_3_4::Name, std::pair<const Imf_3_4::Name, Imf_3_4::Attribute *>, std::_Select1st<std::pair<const Imf_3_4::Name, Imf_3_4::Attribute *>>, std::less<Imf_3_4::Name>>::_Rb_tree_impl" }
%"struct.std::_Rb_tree<Imf_3_4::Name, std::pair<const Imf_3_4::Name, Imf_3_4::Attribute *>, std::_Select1st<std::pair<const Imf_3_4::Name, Imf_3_4::Attribute *>>, std::less<Imf_3_4::Name>>::_Rb_tree_impl" = type { [8 x i8], %"struct.std::_Rb_tree_header" }

@_ZTIN7Iex_3_46ArgExcE = external constant ptr
@.str.37 = private unnamed_addr constant [40 x i8] c"Invalid display window in image header.\00", align 1

; Function Attrs: noinline noreturn nounwind uwtable
define linkonce_odr hidden void @__clang_call_terminate(ptr noundef %0) #9 comdat {
  %2 = call ptr @__cxa_begin_catch(ptr %0) #3
  call void @_ZSt9terminatev() #21
  unreachable
}

; Function Attrs: mustprogress nounwind uwtable
define linkonce_odr hidden void @_ZNSt15_Rb_tree_header8_M_resetEv(ptr noundef nonnull align 8 dereferenceable(40) %0) #5 comdat align 2 {
  %2 = alloca ptr, align 8
  store ptr %0, ptr %2, align 8, !tbaa !166
  %3 = load ptr, ptr %2, align 8
  %4 = getelementptr inbounds nuw %"struct.std::_Rb_tree_header", ptr %3, i32 0, i32 0
  %5 = getelementptr inbounds nuw %"struct.std::_Rb_tree_node_base", ptr %4, i32 0, i32 1
  store ptr null, ptr %5, align 8, !tbaa !171
  %6 = getelementptr inbounds nuw %"struct.std::_Rb_tree_header", ptr %3, i32 0, i32 0
  %7 = getelementptr inbounds nuw %"struct.std::_Rb_tree_header", ptr %3, i32 0, i32 0
  %8 = getelementptr inbounds nuw %"struct.std::_Rb_tree_node_base", ptr %7, i32 0, i32 2
  store ptr %6, ptr %8, align 8, !tbaa !172
  %9 = getelementptr inbounds nuw %"struct.std::_Rb_tree_header", ptr %3, i32 0, i32 0
  %10 = getelementptr inbounds nuw %"struct.std::_Rb_tree_header", ptr %3, i32 0, i32 0
  %11 = getelementptr inbounds nuw %"struct.std::_Rb_tree_node_base", ptr %10, i32 0, i32 3
  store ptr %9, ptr %11, align 8, !tbaa !173
  %12 = getelementptr inbounds nuw %"struct.std::_Rb_tree_header", ptr %3, i32 0, i32 1
  store i64 0, ptr %12, align 8, !tbaa !174
  ret void
}

; Function Attrs: mustprogress nounwind uwtable
define linkonce_odr hidden void @_ZNSt15__new_allocatorISt13_Rb_tree_nodeISt4pairIKN7Imf_3_44NameEPNS2_9AttributeEEEEC2Ev(ptr noundef nonnull align 1 dereferenceable(1) %0) unnamed_addr #5 comdat align 2 {
  %2 = alloca ptr, align 8
  store ptr %0, ptr %2, align 8, !tbaa !169
  ret void
}

; Function Attrs: mustprogress nounwind uwtable
define linkonce_odr hidden void @_ZNSt15_Rb_tree_headerC2Ev(ptr noundef nonnull align 8 dereferenceable(40) %0) unnamed_addr #5 comdat align 2 personality ptr @__gxx_personality_v0 {
  %2 = alloca ptr, align 8
  store ptr %0, ptr %2, align 8, !tbaa !166
  %3 = load ptr, ptr %2, align 8
  %4 = getelementptr inbounds nuw %"struct.std::_Rb_tree_header", ptr %3, i32 0, i32 0
  %5 = getelementptr inbounds nuw %"struct.std::_Rb_tree_node_base", ptr %4, i32 0, i32 0
  store i32 0, ptr %5, align 8, !tbaa !168
  invoke void @_ZNSt15_Rb_tree_header8_M_resetEv(ptr noundef nonnull align 8 dereferenceable(40) %3)
          to label %6 unwind label %7

6:                                                ; preds = %1
  ret void

7:                                                ; preds = %1
  %8 = landingpad { ptr, i32 }
          catch ptr null
  %9 = extractvalue { ptr, i32 } %8, 0
  call void @__clang_call_terminate(ptr %9) #21
  unreachable
}

; Function Attrs: mustprogress nounwind uwtable
define linkonce_odr hidden void @_ZNSt20_Rb_tree_key_compareISt4lessIN7Imf_3_44NameEEEC2Ev(ptr noundef nonnull align 1 dereferenceable(1) %0) unnamed_addr #5 comdat align 2 {
  %2 = alloca ptr, align 8
  store ptr %0, ptr %2, align 8, !tbaa !164
  ret void
}

; Function Attrs: mustprogress nounwind uwtable
define linkonce_odr hidden void @_ZNSaISt13_Rb_tree_nodeISt4pairIKN7Imf_3_44NameEPNS1_9AttributeEEEEC2Ev(ptr noundef nonnull align 1 dereferenceable(1) %0) unnamed_addr #5 comdat align 2 {
  %2 = alloca ptr, align 8
  store ptr %0, ptr %2, align 8, !tbaa !162
  %3 = load ptr, ptr %2, align 8
  call void @_ZNSt15__new_allocatorISt13_Rb_tree_nodeISt4pairIKN7Imf_3_44NameEPNS2_9AttributeEEEEC2Ev(ptr noundef nonnull align 1 dereferenceable(1) %3) #3
  ret void
}

; Function Attrs: mustprogress nounwind uwtable
define linkonce_odr hidden void @_ZNSt8_Rb_treeIN7Imf_3_44NameESt4pairIKS1_PNS0_9AttributeEESt10_Select1stIS6_ESt4lessIS1_ESaIS6_EE13_Rb_tree_implISA_Lb1EEC2Ev(ptr noundef nonnull align 8 dereferenceable(48) %0) unnamed_addr #5 comdat align 2 {
  %2 = alloca ptr, align 8
  store ptr %0, ptr %2, align 8, !tbaa !160
  %3 = load ptr, ptr %2, align 8
  call void @_ZNSaISt13_Rb_tree_nodeISt4pairIKN7Imf_3_44NameEPNS1_9AttributeEEEEC2Ev(ptr noundef nonnull align 1 dereferenceable(1) %3) #3
  call void @_ZNSt20_Rb_tree_key_compareISt4lessIN7Imf_3_44NameEEEC2Ev(ptr noundef nonnull align 1 dereferenceable(1) %3) #3
  %4 = getelementptr inbounds i8, ptr %3, i64 8
  call void @_ZNSt15_Rb_tree_headerC2Ev(ptr noundef nonnull align 8 dereferenceable(40) %4) #3
  ret void
}

; Function Attrs: inlinehint mustprogress nounwind uwtable
define linkonce_odr hidden noundef nonnull align 4 dereferenceable(8) ptr @_ZN9Imath_3_24Vec2IiEaSERKS1_(ptr noundef nonnull align 4 dereferenceable(8) %0, ptr noundef nonnull align 4 dereferenceable(8) %1) #8 comdat align 2 {
  %3 = alloca ptr, align 8
  %4 = alloca ptr, align 8
  store ptr %0, ptr %3, align 8, !tbaa !42
  store ptr %1, ptr %4, align 8, !tbaa !42
  %5 = load ptr, ptr %3, align 8
  %6 = load ptr, ptr %4, align 8, !tbaa !42
  %7 = getelementptr inbounds nuw %"class.Imath_3_2::Vec2", ptr %6, i32 0, i32 0
  %8 = load i32, ptr %7, align 4, !tbaa !44
  %9 = getelementptr inbounds nuw %"class.Imath_3_2::Vec2", ptr %5, i32 0, i32 0
  store i32 %8, ptr %9, align 4, !tbaa !44
  %10 = load ptr, ptr %4, align 8, !tbaa !42
  %11 = getelementptr inbounds nuw %"class.Imath_3_2::Vec2", ptr %10, i32 0, i32 1
  %12 = load i32, ptr %11, align 4, !tbaa !46
  %13 = getelementptr inbounds nuw %"class.Imath_3_2::Vec2", ptr %5, i32 0, i32 1
  store i32 %12, ptr %13, align 4, !tbaa !46
  ret ptr %5
}

; Function Attrs: inlinehint mustprogress nounwind uwtable
define linkonce_odr hidden void @_ZN9Imath_3_24Vec2IiEC2Ev(ptr noundef nonnull align 4 dereferenceable(8) %0) unnamed_addr #8 comdat align 2 {
  %2 = alloca ptr, align 8
  store ptr %0, ptr %2, align 8, !tbaa !42
  ret void
}

; Function Attrs: mustprogress nounwind uwtable
define linkonce_odr hidden void @_ZNSt8_Rb_treeIN7Imf_3_44NameESt4pairIKS1_PNS0_9AttributeEESt10_Select1stIS6_ESt4lessIS1_ESaIS6_EEC2Ev(ptr noundef nonnull align 8 dereferenceable(48) %0) unnamed_addr #5 comdat align 2 {
  %2 = alloca ptr, align 8
  store ptr %0, ptr %2, align 8, !tbaa !158
  %3 = load ptr, ptr %2, align 8
  %4 = getelementptr inbounds nuw %"class.std::_Rb_tree", ptr %3, i32 0, i32 0
  call void @_ZNSt8_Rb_treeIN7Imf_3_44NameESt4pairIKS1_PNS0_9AttributeEESt10_Select1stIS6_ESt4lessIS1_ESaIS6_EE13_Rb_tree_implISA_Lb1EEC2Ev(ptr noundef nonnull align 8 dereferenceable(48) %4) #3
  ret void
}

; Function Attrs: inlinehint mustprogress nounwind uwtable
define linkonce_odr hidden void @_ZN9Imath_3_23BoxINS_4Vec2IiEEEC2ERKS2_S5_(ptr noundef nonnull align 4 dereferenceable(16) %0, ptr noundef nonnull align 4 dereferenceable(8) %1, ptr noundef nonnull align 4 dereferenceable(8) %2) unnamed_addr #8 comdat align 2 {
  %4 = alloca ptr, align 8
  %5 = alloca ptr, align 8
  %6 = alloca ptr, align 8
  store ptr %0, ptr %4, align 8, !tbaa !47
  store ptr %1, ptr %5, align 8, !tbaa !42
  store ptr %2, ptr %6, align 8, !tbaa !42
  %7 = load ptr, ptr %4, align 8
  %8 = getelementptr inbounds nuw %"class.Imath_3_2::Box", ptr %7, i32 0, i32 0
  call void @_ZN9Imath_3_24Vec2IiEC2Ev(ptr noundef nonnull align 4 dereferenceable(8) %8) #3
  %9 = getelementptr inbounds nuw %"class.Imath_3_2::Box", ptr %7, i32 0, i32 1
  call void @_ZN9Imath_3_24Vec2IiEC2Ev(ptr noundef nonnull align 4 dereferenceable(8) %9) #3
  %10 = load ptr, ptr %5, align 8, !tbaa !42
  %11 = getelementptr inbounds nuw %"class.Imath_3_2::Box", ptr %7, i32 0, i32 0
  %12 = call noundef nonnull align 4 dereferenceable(8) ptr @_ZN9Imath_3_24Vec2IiEaSERKS1_(ptr noundef nonnull align 4 dereferenceable(8) %11, ptr noundef nonnull align 4 dereferenceable(8) %10) #3
  %13 = load ptr, ptr %6, align 8, !tbaa !42
  %14 = getelementptr inbounds nuw %"class.Imath_3_2::Box", ptr %7, i32 0, i32 1
  %15 = call noundef nonnull align 4 dereferenceable(8) ptr @_ZN9Imath_3_24Vec2IiEaSERKS1_(ptr noundef nonnull align 4 dereferenceable(8) %14, ptr noundef nonnull align 4 dereferenceable(8) %13) #3
  ret void
}

; Function Attrs: inlinehint mustprogress nounwind uwtable
define linkonce_odr hidden void @_ZN9Imath_3_24Vec2IiEC2Eii(ptr noundef nonnull align 4 dereferenceable(8) %0, i32 noundef %1, i32 noundef %2) unnamed_addr #8 comdat align 2 {
  %4 = alloca ptr, align 8
  %5 = alloca i32, align 4
  %6 = alloca i32, align 4
  store ptr %0, ptr %4, align 8, !tbaa !42
  store i32 %1, ptr %5, align 4, !tbaa !12
  store i32 %2, ptr %6, align 4, !tbaa !12
  %7 = load ptr, ptr %4, align 8
  %8 = getelementptr inbounds nuw %"class.Imath_3_2::Vec2", ptr %7, i32 0, i32 0
  %9 = load i32, ptr %5, align 4, !tbaa !12
  store i32 %9, ptr %8, align 4, !tbaa !44
  %10 = getelementptr inbounds nuw %"class.Imath_3_2::Vec2", ptr %7, i32 0, i32 1
  %11 = load i32, ptr %6, align 4, !tbaa !12
  store i32 %11, ptr %10, align 4, !tbaa !46
  ret void
}

; Function Attrs: mustprogress uwtable
define internal void @_ZN7Imf_3_412_GLOBAL__N_124sanityCheckDisplayWindowEii(i32 noundef %0, i32 noundef %1) #6 personality ptr @__gxx_personality_v0 {
  %3 = alloca i32, align 4
  %4 = alloca i32, align 4
  %5 = alloca ptr, align 8
  %6 = alloca i32, align 4
  store i32 %0, ptr %3, align 4, !tbaa !12
  store i32 %1, ptr %4, align 4, !tbaa !12
  %7 = load i32, ptr %3, align 4, !tbaa !12
  %8 = icmp slt i32 %7, 1
  br i1 %8, label %12, label %9

9:                                                ; preds = %2
  %10 = load i32, ptr %4, align 4, !tbaa !12
  %11 = icmp slt i32 %10, 1
  br i1 %11, label %12, label %19

12:                                               ; preds = %9, %2
  %13 = call ptr @__cxa_allocate_exception(i64 72) #3
  invoke void @_ZN7Iex_3_46ArgExcC1EPKc(ptr noundef nonnull align 8 dereferenceable(72) %13, ptr noundef @.str.37)
          to label %14 unwind label %15

14:                                               ; preds = %12
  call void @__cxa_throw(ptr %13, ptr @_ZTIN7Iex_3_46ArgExcE, ptr @_ZN7Iex_3_46ArgExcD1Ev) #20
  unreachable

15:                                               ; preds = %12
  %16 = landingpad { ptr, i32 }
          cleanup
  %17 = extractvalue { ptr, i32 } %16, 0
  store ptr %17, ptr %5, align 8
  %18 = extractvalue { ptr, i32 } %16, 1
  store i32 %18, ptr %6, align 4
  call void @__cxa_free_exception(ptr %13) #3
  br label %20

19:                                               ; preds = %9
  ret void

20:                                               ; preds = %15
  %21 = load ptr, ptr %5, align 8
  %22 = load i32, ptr %6, align 4
  %23 = insertvalue { ptr, i32 } poison, ptr %21, 0
  %24 = insertvalue { ptr, i32 } %23, i32 %22, 1
  resume { ptr, i32 } %24
}

; Function Attrs: mustprogress nounwind uwtable
define linkonce_odr hidden void @_ZNSt3mapIN7Imf_3_44NameEPNS0_9AttributeESt4lessIS1_ESaISt4pairIKS1_S3_EEEC2Ev(ptr noundef nonnull align 8 dereferenceable(48) %0) unnamed_addr #5 comdat align 2 {
  %2 = alloca ptr, align 8
  store ptr %0, ptr %2, align 8, !tbaa !37
  %3 = load ptr, ptr %2, align 8
  %4 = getelementptr inbounds nuw %"class.std::map", ptr %3, i32 0, i32 0
  call void @_ZNSt8_Rb_treeIN7Imf_3_44NameESt4pairIKS1_PNS0_9AttributeEESt10_Select1stIS6_ESt4lessIS1_ESaIS6_EEC2Ev(ptr noundef nonnull align 8 dereferenceable(48) %4) #3
  ret void
}

; Function Attrs: mustprogress uwtable
define void @_ZN7Imf_3_46HeaderC2EiiRKN9Imath_3_23BoxINS1_4Vec2IiEEEEfRKNS3_IfEEfNS_9LineOrderENS_11CompressionE(ptr noundef nonnull align 8 dereferenceable(49) %0, i32 noundef %1, i32 noundef %2, ptr noundef nonnull align 4 dereferenceable(16) %3, float noundef %4, ptr noundef nonnull align 4 dereferenceable(8) %5, float noundef %6, i32 noundef %7, i32 noundef %8) unnamed_addr #6 align 2 personality ptr @__gxx_personality_v0 {
  %10 = alloca ptr, align 8
  %11 = alloca i32, align 4
  %12 = alloca i32, align 4
  %13 = alloca ptr, align 8
  %14 = alloca float, align 4
  %15 = alloca ptr, align 8
  %16 = alloca float, align 4
  %17 = alloca i32, align 4
  %18 = alloca i32, align 4
  %19 = alloca ptr, align 8
  %20 = alloca i32, align 4
  %21 = alloca %"class.Imath_3_2::Box", align 4
  %22 = alloca %"class.Imath_3_2::Vec2", align 4
  %23 = alloca %"class.Imath_3_2::Vec2", align 4
  store ptr %0, ptr %10, align 8, !tbaa !16
  store i32 %1, ptr %11, align 4, !tbaa !12
  store i32 %2, ptr %12, align 4, !tbaa !12
  store ptr %3, ptr %13, align 8, !tbaa !47
  store float %4, ptr %14, align 4, !tbaa !14
  store ptr %5, ptr %15, align 8, !tbaa !18
  store float %6, ptr %16, align 4, !tbaa !14
  store i32 %7, ptr %17, align 4, !tbaa !20
  store i32 %8, ptr %18, align 4, !tbaa !22
  %24 = load ptr, ptr %10, align 8
  %25 = getelementptr inbounds nuw %"class.Imf_3_4::Header", ptr %24, i32 0, i32 0
  call void @llvm.memset.p0.i64(ptr align 8 %25, i8 0, i64 48, i1 false)
  call void @_ZNSt3mapIN7Imf_3_44NameEPNS0_9AttributeESt4lessIS1_ESaISt4pairIKS1_S3_EEEC2Ev(ptr noundef nonnull align 8 dereferenceable(48) %25) #3
  %26 = getelementptr inbounds nuw %"class.Imf_3_4::Header", ptr %24, i32 0, i32 1
  store i8 0, ptr %26, align 8, !tbaa !24
  %27 = load i32, ptr %11, align 4, !tbaa !12
  %28 = load i32, ptr %12, align 4, !tbaa !12
  invoke void @_ZN7Imf_3_412_GLOBAL__N_124sanityCheckDisplayWindowEii(i32 noundef %27, i32 noundef %28)
          to label %29 unwind label %42

29:                                               ; preds = %9
  invoke void @_ZN7Imf_3_416staticInitializeEv()
          to label %30 unwind label %42

30:                                               ; preds = %29
  call void @llvm.lifetime.start.p0(i64 16, ptr %21) #3
  call void @llvm.lifetime.start.p0(i64 8, ptr %22) #3
  call void @_ZN9Imath_3_24Vec2IiEC2Eii(ptr noundef nonnull align 4 dereferenceable(8) %22, i32 noundef 0, i32 noundef 0) #3
  call void @llvm.lifetime.start.p0(i64 8, ptr %23) #3
  %31 = load i32, ptr %11, align 4, !tbaa !12
  %32 = sub nsw i32 %31, 1
  %33 = load i32, ptr %12, align 4, !tbaa !12
  %34 = sub nsw i32 %33, 1
  call void @_ZN9Imath_3_24Vec2IiEC2Eii(ptr noundef nonnull align 4 dereferenceable(8) %23, i32 noundef %32, i32 noundef %34) #3
  call void @_ZN9Imath_3_23BoxINS_4Vec2IiEEEC2ERKS2_S5_(ptr noundef nonnull align 4 dereferenceable(16) %21, ptr noundef nonnull align 4 dereferenceable(8) %22, ptr noundef nonnull align 4 dereferenceable(8) %23) #3
  call void @llvm.lifetime.end.p0(i64 8, ptr %23) #3
  call void @llvm.lifetime.end.p0(i64 8, ptr %22) #3
  %35 = load ptr, ptr %13, align 8, !tbaa !47
  %36 = load float, ptr %14, align 4, !tbaa !14
  %37 = load ptr, ptr %15, align 8, !tbaa !18
  %38 = load float, ptr %16, align 4, !tbaa !14
  %39 = load i32, ptr %17, align 4, !tbaa !20
  %40 = load i32, ptr %18, align 4, !tbaa !22
  invoke void @_ZN7Imf_3_412_GLOBAL__N_110initializeERNS_6HeaderERKN9Imath_3_23BoxINS3_4Vec2IiEEEES9_fRKNS5_IfEEfNS_9LineOrderENS_11CompressionE(ptr noundef nonnull align 8 dereferenceable(49) %24, ptr noundef nonnull align 4 dereferenceable(16) %21, ptr noundef nonnull align 4 dereferenceable(16) %35, float noundef %36, ptr noundef nonnull align 4 dereferenceable(8) %37, float noundef %38, i32 noundef %39, i32 noundef %40)
          to label %41 unwind label %46

41:                                               ; preds = %30
  call void @llvm.lifetime.end.p0(i64 16, ptr %21) #3
  ret void

42:                                               ; preds = %29, %9
  %43 = landingpad { ptr, i32 }
          cleanup
  %44 = extractvalue { ptr, i32 } %43, 0
  store ptr %44, ptr %19, align 8
  %45 = extractvalue { ptr, i32 } %43, 1
  store i32 %45, ptr %20, align 4
  br label %50

46:                                               ; preds = %30
  %47 = landingpad { ptr, i32 }
          cleanup
  %48 = extractvalue { ptr, i32 } %47, 0
  store ptr %48, ptr %19, align 8
  %49 = extractvalue { ptr, i32 } %47, 1
  store i32 %49, ptr %20, align 4
  call void @llvm.lifetime.end.p0(i64 16, ptr %21) #3
  br label %50

50:                                               ; preds = %46, %42
  call void @_ZNSt3mapIN7Imf_3_44NameEPNS0_9AttributeESt4lessIS1_ESaISt4pairIKS1_S3_EEED2Ev(ptr noundef nonnull align 8 dereferenceable(48) %25) #3
  br label %51

51:                                               ; preds = %50
  %52 = load ptr, ptr %19, align 8
  %53 = load i32, ptr %20, align 4
  %54 = insertvalue { ptr, i32 } poison, ptr %52, 0
  %55 = insertvalue { ptr, i32 } %54, i32 %53, 1
  resume { ptr, i32 } %55
}