; Function Attrs: mustprogress uwtable
define void @_ZN7Imf_3_46HeaderC2EiiRKN9Imath_3_23BoxINS1_4Vec2IiEEEEfRKNS3_IfEEfNS_9LineOrderENS_11CompressionE(ptr noundef nonnull align 8 dereferenceable(49) initializes((0, 24)) %0, i32 noundef %1, i32 noundef %2, ptr noundef nonnull align 4 dereferenceable(16) %3, float noundef %4, ptr noundef nonnull align 4 dereferenceable(8) %5, float noundef %6, i32 noundef %7, i32 noundef %8) unnamed_addr #5 align 2 personality ptr @__gxx_personality_v0 {
  %10 = alloca %"class.Imath_3_2::Box", align 4
  %11 = getelementptr inbounds nuw i8, ptr %0, i64 8
  %12 = getelementptr inbounds nuw i8, ptr %0, i64 24
  tail call void @llvm.memset.p0.i64(ptr noundef nonnull align 8 dereferenceable(24) %0, i8 0, i64 24, i1 false)
  store ptr %11, ptr %12, align 8, !tbaa !3
  %13 = getelementptr inbounds nuw i8, ptr %0, i64 32
  store ptr %11, ptr %13, align 8, !tbaa !12
  %14 = getelementptr inbounds nuw i8, ptr %0, i64 40
  store i64 0, ptr %14, align 8, !tbaa !13
  %15 = getelementptr inbounds nuw i8, ptr %0, i64 48
  store i8 0, ptr %15, align 8, !tbaa !14
  %16 = icmp slt i32 %1, 1
  %17 = icmp slt i32 %2, 1
  %or.cond.i = or i1 %16, %17
  br i1 %or.cond.i, label %18, label %_ZN7Imf_3_412_GLOBAL__N_124sanityCheckDisplayWindowEii.exit

18:                                               ; preds = %9
  %19 = tail call ptr @__cxa_allocate_exception(i64 72) #29
  invoke void @_ZN7Iex_3_46ArgExcC1EPKc(ptr noundef nonnull align 8 dereferenceable(72) %19, ptr noundef nonnull @.str.37)
          to label %20 unwind label %21

20:                                               ; preds = %18
  invoke void @__cxa_throw(ptr nonnull %19, ptr nonnull @_ZTIN7Iex_3_46ArgExcE, ptr nonnull @_ZN7Iex_3_46ArgExcD1Ev) #30
          to label %.noexc unwind label %30

.noexc:                                           ; preds = %20
  unreachable

21:                                               ; preds = %18
  %22 = landingpad { ptr, i32 }
          cleanup
  tail call void @__cxa_free_exception(ptr nonnull %19) #29
  br label %.body

_ZN7Imf_3_412_GLOBAL__N_124sanityCheckDisplayWindowEii.exit: ; preds = %9
  invoke void @_ZN7Imf_3_416staticInitializeEv()
          to label %23 unwind label %30

23:                                               ; preds = %_ZN7Imf_3_412_GLOBAL__N_124sanityCheckDisplayWindowEii.exit
  call void @llvm.lifetime.start.p0(i64 16, ptr nonnull %10) #29
  %24 = add nsw i32 %1, -1
  %25 = add nsw i32 %2, -1
  %26 = getelementptr inbounds nuw i8, ptr %10, i64 8
  store i32 0, ptr %10, align 4, !tbaa !22
  %27 = getelementptr inbounds nuw i8, ptr %10, i64 4
  store i32 0, ptr %27, align 4, !tbaa !25
  store i32 %24, ptr %26, align 4, !tbaa !22
  %28 = getelementptr inbounds nuw i8, ptr %10, i64 12
  store i32 %25, ptr %28, align 4, !tbaa !25
  invoke fastcc void @_ZN7Imf_3_412_GLOBAL__N_110initializeERNS_6HeaderERKN9Imath_3_23BoxINS3_4Vec2IiEEEES9_fRKNS5_IfEEfNS_9LineOrderENS_11CompressionE(ptr noundef nonnull align 8 dereferenceable(49) %0, ptr noundef nonnull align 4 dereferenceable(16) %10, ptr noundef nonnull align 4 dereferenceable(16) %3, float noundef %4, ptr noundef nonnull align 4 dereferenceable(8) %5, float noundef %6, i32 noundef %7, i32 noundef %8)
          to label %29 unwind label %32

29:                                               ; preds = %23
  call void @llvm.lifetime.end.p0(i64 16, ptr nonnull %10) #29
  ret void

30:                                               ; preds = %20, %_ZN7Imf_3_412_GLOBAL__N_124sanityCheckDisplayWindowEii.exit
  %31 = landingpad { ptr, i32 }
          cleanup
  br label %.body

32:                                               ; preds = %23
  %33 = landingpad { ptr, i32 }
          cleanup
  call void @llvm.lifetime.end.p0(i64 16, ptr nonnull %10) #29
  br label %.body

.body:                                            ; preds = %30, %21, %32
  %.pn = phi { ptr, i32 } [ %33, %32 ], [ %31, %30 ], [ %22, %21 ]
  call void @_ZNSt3mapIN7Imf_3_44NameEPNS0_9AttributeESt4lessIS1_ESaISt4pairIKS1_S3_EEED2Ev(ptr noundef nonnull align 8 dereferenceable(48) %0) #29
  resume { ptr, i32 } %.pn
}